target datalayout = "e-m:e-p270:32:32-p271:32:32-p272:64:64-i64:64-i128:128-f80:128-n8:16:32:64-S128"
target triple = "x86_64-pc-linux-gnu"

%struct.ExtChannelElement = type { %struct.ChannelElement, [2 x [672 x %struct.PredictorState]], %struct.SpectralBandReplication }
%struct.ChannelElement = type { i32, i8, [128 x i8], [11 x i8], [2 x %struct.SingleChannelElement], %struct.ChannelCoupling, [8 x i8], %struct.AACUsacStereo }
%struct.SingleChannelElement = type { %struct.IndividualChannelStream, %struct.AACUsacElemData, %struct.TemporalNoiseShaping, [128 x i32], [128 x i32], %union.anon.3, [12 x i8], %union.anon.4, %union.anon.5, %union.anon.6, %union.anon.7, %union.anon.8, %union.anon.9, %union.anon.10 }
%struct.IndividualChannelStream = type { i8, [2 x i32], [2 x i8], i32, i32, [8 x i8], %struct.LongTermPrediction, ptr, i32, i32, i32, i32, i32, i32, [41 x i8], [8 x i8] }
%struct.LongTermPrediction = type { i8, i16, %union.anon, [40 x i8] }
%union.anon = type { i32 }
%struct.AACUsacElemData = type { i8, i8, i8, [16 x i8], %struct.anon, %struct.anon.0, %struct.anon.1, %struct.AACArithState }
%struct.anon = type { i16, i32 }
%struct.anon.0 = type { i32, i8 }
%struct.anon.1 = type { i8, [8 x [8 x i32]] }
%struct.AACArithState = type { [513 x i8], i32, [4 x i8], i16 }
%struct.TemporalNoiseShaping = type { i32, [8 x i32], [8 x [4 x i32]], [8 x [4 x i32]], [8 x [4 x i32]], %union.anon.2 }
%union.anon.2 = type { [8 x [4 x [20 x i32]]] }
%union.anon.3 = type { [128 x i32] }
%union.anon.4 = type { [1024 x i32] }
%union.anon.5 = type { [1024 x i32] }
%union.anon.6 = type { [1536 x i32] }
%union.anon.7 = type { [2048 x i32] }
%union.anon.8 = type { [3072 x i32] }
%union.anon.9 = type { ptr }
%union.anon.10 = type { ptr }
%struct.ChannelCoupling = type { i32, i32, [8 x i32], [8 x i32], [8 x i32], %union.anon.11 }
%union.anon.11 = type { [16 x [120 x i32]] }
%struct.AACUsacStereo = type { i8, i8, i8, i8, i8, i8, i8, i8, [128 x i8], [8 x i8], %union.anon.12, %union.anon.13, %union.anon.14, %union.anon.15, %union.anon.16, %union.anon.17, %union.anon.18 }
%union.anon.12 = type { [1024 x i32] }
%union.anon.13 = type { [1024 x i32] }
%union.anon.14 = type { [1024 x i32] }
%union.anon.15 = type { [1024 x i32] }
%union.anon.16 = type { [1024 x i32] }
%union.anon.17 = type { [1024 x i32] }
%union.anon.18 = type { [1024 x i32] }
%struct.PredictorState = type { float, float, float, float, float, float, float, float }
%struct.SpectralBandReplication = type { i32, i32, i32, i32, i32, i32, i32, %struct.SpectrumParameters, i32, i32, i32, i32, i32, i32, i32, [5 x i32], [2 x i32], [2 x i32], i32, i32, [4 x i8], [2 x %struct.SBRData], %struct.PSContext, [2 x i32], i32, i32, [49 x i16], [25 x i16], [49 x i16], [6 x i16], [30 x i16], i32, [6 x i8], [6 x i8], [32 x [40 x [2 x float]]], [64 x [40 x [2 x float]]], [2 x [2 x [38 x [64 x float]]]], [64 x [2 x float]], [64 x [2 x float]], [8 x [48 x float]], [8 x [48 x float]], [8 x [48 x i8]], [8 x [48 x float]], [8 x [48 x float]], [8 x [48 x float]], [8 x [48 x float]], [5 x [64 x float]], ptr, ptr, ptr, ptr, %struct.SBRDSPContext, %struct.AACSBRContext }
%struct.SpectrumParameters = type { i8, i8, i8, i8, i8, i8 }
%struct.SBRData = type { i32, i32, i32, [9 x i8], i32, [9 x i8], [2 x i8], [2 x [5 x i8]], [48 x i8], i32, [8 x i8], [2304 x float], [1312 x float], i32, [2 x i32], [5 x float], [2 x [32 x [32 x [2 x float]]]], i32, [12 x i8], [2 x [38 x [64 x [2 x float]]]], [42 x [48 x float]], [42 x [48 x float]], [9 x [48 x i8]], [9 x [48 x i8]], [9 x [48 x float]], [3 x [5 x i8]], [3 x [5 x float]], [9 x i8], i8, [3 x i8], i32, i32, [6 x i8], [6 x i8] }
%struct.PSContext = type { %struct.PSCommonContext, [4 x i8], [5 x [44 x [2 x float]]], [91 x [46 x [2 x float]]], [50 x [3 x [37 x [2 x float]]]], [34 x float], [8 x i8], [34 x float], [8 x i8], [34 x float], [8 x i8], [2 x [6 x [34 x float]]], [2 x [6 x [34 x float]]], [2 x [6 x [34 x float]]], [2 x [6 x [34 x float]]], [91 x [32 x [2 x float]]], [91 x [32 x [2 x float]]], [34 x i8], [34 x i8], %struct.PSDSPContext, [8 x i8] }
%struct.PSCommonContext = type { i32, i32, i32, i32, i32, i32, i32, i32, i32, i32, i32, i32, i32, [6 x i32], [5 x [34 x i8]], [5 x [34 x i8]], [5 x [34 x i8]], [5 x [34 x i8]], i32, i32 }
%struct.PSDSPContext = type { ptr, ptr, ptr, ptr, ptr, ptr, [2 x ptr] }
%struct.SBRDSPContext = type { ptr, ptr, ptr, ptr, ptr, ptr, ptr, ptr, ptr, ptr, [4 x ptr] }
%struct.AACSBRContext = type { ptr, ptr, ptr, ptr }

; Function Attrs: nounwind uwtable
define internal void @sbr_turnoff(ptr noundef %0) #3 {
  %2 = alloca ptr, align 8
  store ptr %0, ptr %2, align 8, !tbaa !18
  %3 = load ptr, ptr %2, align 8, !tbaa !18
  %4 = getelementptr inbounds nuw %struct.SpectralBandReplication, ptr %3, i32 0, i32 1
  store i32 0, ptr %4, align 4, !tbaa !34
  %5 = load ptr, ptr %2, align 8, !tbaa !18
  %6 = getelementptr inbounds nuw %struct.SpectralBandReplication, ptr %5, i32 0, i32 4
  store i32 0, ptr %6, align 16, !tbaa !35
  %7 = load ptr, ptr %2, align 8, !tbaa !18
  %8 = getelementptr inbounds nuw %struct.SpectralBandReplication, ptr %7, i32 0, i32 2
  store i32 0, ptr %8, align 8, !tbaa !36
  %9 = load ptr, ptr %2, align 8, !tbaa !18
  %10 = getelementptr inbounds nuw %struct.SpectralBandReplication, ptr %9, i32 0, i32 16
  %11 = getelementptr inbounds [2 x i32], ptr %10, i64 0, i64 1
  store i32 32, ptr %11, align 4, !tbaa !12
  %12 = load ptr, ptr %2, align 8, !tbaa !18
  %13 = getelementptr inbounds nuw %struct.SpectralBandReplication, ptr %12, i32 0, i32 17
  %14 = getelementptr inbounds [2 x i32], ptr %13, i64 0, i64 1
  store i32 0, ptr %14, align 4, !tbaa !12
  %15 = load ptr, ptr %2, align 8, !tbaa !18
  %16 = getelementptr inbounds nuw %struct.SpectralBandReplication, ptr %15, i32 0, i32 21
  %17 = getelementptr inbounds [2 x %struct.SBRData], ptr %16, i64 0, i64 1
  %18 = getelementptr inbounds nuw %struct.SBRData, ptr %17, i32 0, i32 14
  %19 = getelementptr inbounds [2 x i32], ptr %18, i64 0, i64 1
  store i32 -1, ptr %19, align 4, !tbaa !12
  %20 = load ptr, ptr %2, align 8, !tbaa !18
  %21 = getelementptr inbounds nuw %struct.SpectralBandReplication, ptr %20, i32 0, i32 21
  %22 = getelementptr inbounds [2 x %struct.SBRData], ptr %21, i64 0, i64 0
  %23 = getelementptr inbounds nuw %struct.SBRData, ptr %22, i32 0, i32 14
  %24 = getelementptr inbounds [2 x i32], ptr %23, i64 0, i64 1
  store i32 -1, ptr %24, align 4, !tbaa !12
  %25 = load ptr, ptr %2, align 8, !tbaa !18
  %26 = getelementptr inbounds nuw %struct.SpectralBandReplication, ptr %25, i32 0, i32 7
  call void @llvm.memset.p0.i64(ptr align 4 %26, i8 -1, i64 6, i1 false)
  ret void
}

; Function Attrs: inlinehint nounwind uwtable
define internal ptr @get_sbr(ptr noundef %0) #4 {
  %2 = alloca ptr, align 8
  store ptr %0, ptr %2, align 8, !tbaa !16
  %3 = load ptr, ptr %2, align 8, !tbaa !16
  %4 = getelementptr inbounds nuw %struct.ExtChannelElement, ptr %3, i32 0, i32 2
  ret ptr %4
}

; Function Attrs: nounwind uwtable
define hidden i32 @ff_aac_sbr_config_usac(ptr noundef %0, ptr noundef %1, ptr noundef %2) #3 {
  %4 = alloca ptr, align 8
  %5 = alloca ptr, align 8
  %6 = alloca ptr, align 8
  %7 = alloca ptr, align 8
  store ptr %0, ptr %4, align 8, !tbaa !4
  store ptr %1, ptr %5, align 8, !tbaa !16
  store ptr %2, ptr %6, align 8, !tbaa !86
  call void @llvm.lifetime.start.p0(i64 8, ptr %7) #12
  %8 = load ptr, ptr %5, align 8, !tbaa !16
  %9 = call ptr @get_sbr(ptr noundef %8)
  store ptr %9, ptr %7, align 8, !tbaa !18
  %10 = load ptr, ptr %7, align 8, !tbaa !18
  call void @sbr_turnoff(ptr noundef %10)
  call void @llvm.lifetime.end.p0(i64 8, ptr %7) #12
  ret i32 0
}