; Function Attrs: mustprogress nofree norecurse nosync nounwind willreturn memory(argmem: write) uwtable
define hidden noundef i32 @ff_aac_sbr_config_usac(ptr noundef readnone captures(none) %0, ptr noundef writeonly captures(none) initializes((160468, 160476), (160480, 160484), (160492, 160498), (160552, 160556), (160560, 160564), (175160, 175164), (263912, 263916)) %1, ptr noundef readnone captures(none) %2) local_unnamed_addr #6 {
  %4 = getelementptr inbounds nuw i8, ptr %1, i64 160468
  store i32 0, ptr %4, align 4, !tbaa !21
  %5 = getelementptr inbounds nuw i8, ptr %1, i64 160480
  store i32 0, ptr %5, align 16, !tbaa !22
  %6 = getelementptr inbounds nuw i8, ptr %1, i64 160472
  store i32 0, ptr %6, align 8, !tbaa !23
  %7 = getelementptr inbounds nuw i8, ptr %1, i64 160552
  store i32 32, ptr %7, align 4, !tbaa !10
  %8 = getelementptr inbounds nuw i8, ptr %1, i64 160560
  store i32 0, ptr %8, align 4, !tbaa !10
  %9 = getelementptr inbounds nuw i8, ptr %1, i64 263912
  store i32 -1, ptr %9, align 4, !tbaa !10
  %10 = getelementptr inbounds nuw i8, ptr %1, i64 175160
  store i32 -1, ptr %10, align 4, !tbaa !10
  %11 = getelementptr inbounds nuw i8, ptr %1, i64 160492
  tail call void @llvm.memset.p0.i64(ptr noundef nonnull align 4 dereferenceable(6) %11, i8 -1, i64 6, i1 false)
  ret i32 0
}